; ModuleID = '27/1715.c'
source_filename = "27/1715.c"
target datalayout = "e-m:e-p270:32:32-p271:32:32-p272:64:64-i64:64-f80:128-n8:16:32:64-S128"
target triple = "x86_64-pc-linux-gnu"

@.str = private unnamed_addr constant [3 x i8] c"%d\00", align 1
@.str.1 = private unnamed_addr constant [10 x i8] c"%lf%lf%lf\00", align 1
@.str.2 = private unnamed_addr constant [19 x i8] c"x1=%.5lf;x2=%.5lf\0A\00", align 1
@.str.3 = private unnamed_addr constant [13 x i8] c"x1=x2=%.5lf\0A\00", align 1
@.str.4 = private unnamed_addr constant [17 x i8] c"x1=%.5lf+%.5lfi;\00", align 1
@.str.5 = private unnamed_addr constant [17 x i8] c"x2=%.5lf-%.5lfi\0A\00", align 1

; Function Attrs: noinline nounwind uwtable
define dso_local i32 @main() #0 {
  %1 = alloca i32, align 4
  %2 = alloca double, align 8
  %3 = alloca double, align 8
  %4 = alloca double, align 8
  %5 = alloca double, align 8
  %6 = alloca double, align 8
  %7 = alloca double, align 8
  %8 = alloca double, align 8
  %9 = alloca double, align 8
  %10 = alloca double, align 8
  %11 = alloca i32, align 4
  %12 = alloca i32, align 4
  store i32 0, i32* %1, align 4
  %13 = call i32 (i8*, ...) @__isoc99_scanf(i8* getelementptr inbounds ([3 x i8], [3 x i8]* @.str, i64 0, i64 0), i32* %11)
  store i32 0, i32* %12, align 4
  br label %14

14:                                               ; preds = %87, %0
  %15 = load i32, i32* %12, align 4
  %16 = load i32, i32* %11, align 4
  %17 = icmp slt i32 %15, %16
  br i1 %17, label %18, label %90

18:                                               ; preds = %14
  %19 = call i32 (i8*, ...) @__isoc99_scanf(i8* getelementptr inbounds ([10 x i8], [10 x i8]* @.str.1, i64 0, i64 0), double* %2, double* %3, double* %4)
  %20 = load double, double* %3, align 8
  %21 = load double, double* %3, align 8
  %22 = fmul double %20, %21
  %23 = load double, double* %2, align 8
  %24 = fmul double 4.000000e+00, %23
  %25 = load double, double* %4, align 8
  %26 = fmul double %24, %25
  %27 = fsub double %22, %26
  store double %27, double* %5, align 8
  %28 = load double, double* %5, align 8
  %29 = fcmp ogt double %28, 0.000000e+00
  br i1 %29, label %30, label %50

30:                                               ; preds = %18
  %31 = load double, double* %3, align 8
  %32 = fneg double %31
  %33 = load double, double* %5, align 8
  %34 = call double @sqrt(double %33) #3
  %35 = fadd double %32, %34
  %36 = load double, double* %2, align 8
  %37 = fmul double 2.000000e+00, %36
  %38 = fdiv double %35, %37
  store double %38, double* %7, align 8
  %39 = load double, double* %3, align 8
  %40 = fneg double %39
  %41 = load double, double* %5, align 8
  %42 = call double @sqrt(double %41) #3
  %43 = fsub double %40, %42
  %44 = load double, double* %2, align 8
  %45 = fmul double 2.000000e+00, %44
  %46 = fdiv double %43, %45
  store double %46, double* %8, align 8
  %47 = load double, double* %7, align 8
  %48 = load double, double* %8, align 8
  %49 = call i32 (i8*, ...) @printf(i8* getelementptr inbounds ([19 x i8], [19 x i8]* @.str.2, i64 0, i64 0), double %47, double %48)
  br label %86

50:                                               ; preds = %18
  %51 = load double, double* %5, align 8
  %52 = fcmp oeq double %51, 0.000000e+00
  br i1 %52, label %53, label %66

53:                                               ; preds = %50
  %54 = load double, double* %3, align 8
  %55 = fneg double %54
  %56 = load double, double* %2, align 8
  %57 = fmul double 2.000000e+00, %56
  %58 = fdiv double %55, %57
  store double %58, double* %7, align 8
  %59 = load double, double* %3, align 8
  %60 = fneg double %59
  %61 = load double, double* %2, align 8
  %62 = fmul double 2.000000e+00, %61
  %63 = fdiv double %60, %62
  store double %63, double* %8, align 8
  %64 = load double, double* %7, align 8
  %65 = call i32 (i8*, ...) @printf(i8* getelementptr inbounds ([13 x i8], [13 x i8]* @.str.3, i64 0, i64 0), double %64)
  br label %85

66:                                               ; preds = %50
  %67 = load double, double* %5, align 8
  %68 = fneg double %67
  store double %68, double* %6, align 8
  %69 = load double, double* %3, align 8
  %70 = fneg double %69
  %71 = load double, double* %2, align 8
  %72 = fmul double 2.000000e+00, %71
  %73 = fdiv double %70, %72
  store double %73, double* %9, align 8
  %74 = load double, double* %6, align 8
  %75 = call double @sqrt(double %74) #3
  %76 = load double, double* %2, align 8
  %77 = fmul double 2.000000e+00, %76
  %78 = fdiv double %75, %77
  store double %78, double* %10, align 8
  %79 = load double, double* %9, align 8
  %80 = load double, double* %10, align 8
  %81 = call i32 (i8*, ...) @printf(i8* getelementptr inbounds ([17 x i8], [17 x i8]* @.str.4, i64 0, i64 0), double %79, double %80)
  %82 = load double, double* %9, align 8
  %83 = load double, double* %10, align 8
  %84 = call i32 (i8*, ...) @printf(i8* getelementptr inbounds ([17 x i8], [17 x i8]* @.str.5, i64 0, i64 0), double %82, double %83)
  br label %85

85:                                               ; preds = %66, %53
  br label %86

86:                                               ; preds = %85, %30
  br label %87

87:                                               ; preds = %86
  %88 = load i32, i32* %12, align 4
  %89 = add nsw i32 %88, 1
  store i32 %89, i32* %12, align 4
  br label %14

90:                                               ; preds = %14
  ret i32 0
}

declare dso_local i32 @__isoc99_scanf(i8*, ...) #1

; Function Attrs: nounwind
declare dso_local double @sqrt(double) #2

declare dso_local i32 @printf(i8*, ...) #1


!llvm.module.flags = !{!0}
!llvm.ident = !{!1}

!0 = !{i32 1, !"wchar_size", i32 4}
!1 = !{!"clang version 10.0.0-4ubuntu1 "}
